; Function Attrs: mustprogress nounwind uwtable
define hidden void @_ZN14MacroAssembler10load_klassE8RegisterS0_S0_(ptr noundef nonnull align 8 dereferenceable(40) %0, i32 %1, i32 %2, i32 %3) local_unnamed_addr #0 align 2 {
  %5 = alloca %class.Address, align 8
  %6 = alloca %class.Address, align 8
  %7 = alloca %class.Address, align 8
  %8 = load i8, ptr @UseCompressedClassPointers, align 1
  %9 = trunc i8 %8 to i1
  br i1 %9, label %10, label %22

10:                                               ; preds = %4
  store i32 %2, ptr %6, align 8
  %11 = getelementptr inbounds i8, ptr %6, i64 4
  store <4 x i32> <i32 -1, i32 -1, i32 -1, i32 8>, ptr %11, align 4
  %12 = getelementptr inbounds i8, ptr %6, i64 20
  store i8 0, ptr %12, align 4
  %13 = getelementptr inbounds i8, ptr %6, i64 24
  store ptr getelementptr inbounds inrange(-16, 72) (i8, ptr @_ZTV10Relocation, i64 16), ptr %13, align 8
  %14 = getelementptr inbounds i8, ptr %6, i64 32
  store ptr null, ptr %14, align 8
  %15 = getelementptr inbounds i8, ptr %6, i64 40
  store i32 0, ptr %15, align 8
  call void @_ZN9Assembler4movlE8Register7Address(ptr noundef nonnull align 8 dereferenceable(40) %0, i32 %1, ptr noundef nonnull %6) #18
  %16 = load i32, ptr @_ZN23CompressedKlassPointers6_shiftE, align 4
  %.not.i = icmp eq i32 %16, 0
  br i1 %.not.i, label %18, label %17

17:                                               ; preds = %10
  call void @_ZN9Assembler4shlqE8Registeri(ptr noundef nonnull align 8 dereferenceable(40) %0, i32 %1, i32 noundef 3) #18
  br label %18

18:                                               ; preds = %17, %10
  %19 = load ptr, ptr @_ZN23CompressedKlassPointers5_baseE, align 8
  %.not12.i = icmp eq ptr %19, null
  br i1 %.not12.i, label %_ZN14MacroAssembler21decode_klass_not_nullE8RegisterS0_.exit, label %20

20:                                               ; preds = %18
  %21 = ptrtoint ptr %19 to i64
  call void @_ZN9Assembler5mov64E8Registerl(ptr noundef nonnull align 8 dereferenceable(40) %0, i32 %3, i64 noundef %21) #18
  call void @_ZN9Assembler4addqE8RegisterS0_(ptr noundef nonnull align 8 dereferenceable(40) %0, i32 %1, i32 %3) #18
  br label %_ZN14MacroAssembler21decode_klass_not_nullE8RegisterS0_.exit

22:                                               ; preds = %4
  store i32 %2, ptr %7, align 8
  %23 = getelementptr inbounds i8, ptr %7, i64 4
  store <4 x i32> <i32 -1, i32 -1, i32 -1, i32 8>, ptr %23, align 4
  %24 = getelementptr inbounds i8, ptr %7, i64 20
  store i8 0, ptr %24, align 4
  %25 = getelementptr inbounds i8, ptr %7, i64 24
  store ptr getelementptr inbounds inrange(-16, 72) (i8, ptr @_ZTV10Relocation, i64 16), ptr %25, align 8
  %26 = getelementptr inbounds i8, ptr %7, i64 32
  store ptr null, ptr %26, align 8
  %27 = getelementptr inbounds i8, ptr %7, i64 40
  store i32 0, ptr %27, align 8
  call void @llvm.lifetime.start.p0(i64 64, ptr nonnull %5)
  call void @llvm.memcpy.p0.p0.i64(ptr noundef nonnull align 8 dereferenceable(21) %5, ptr noundef nonnull align 8 dereferenceable(21) %7, i64 21, i1 false)
  %28 = getelementptr inbounds i8, ptr %5, i64 24
  %29 = load ptr, ptr getelementptr inbounds inrange(-32, 56) (i8, ptr @_ZTV10Relocation, i64 32), align 8
  call void %29(ptr noundef nonnull align 8 dereferenceable(20) %25, ptr noundef nonnull align 8 dereferenceable(40) %28) #18
  call void @_ZN9Assembler4movqE8Register7Address(ptr noundef nonnull align 8 dereferenceable(40) %0, i32 %1, ptr noundef nonnull %5) #18
  call void @llvm.lifetime.end.p0(i64 64, ptr nonnull %5)
  br label %_ZN14MacroAssembler21decode_klass_not_nullE8RegisterS0_.exit

_ZN14MacroAssembler21decode_klass_not_nullE8RegisterS0_.exit: ; preds = %20, %18, %22
  ret void
}